target datalayout = "e-m:e-p270:32:32-p271:32:32-p272:64:64-i64:64-i128:128-f80:128-n8:16:32:64-S128"
target triple = "x86_64-pc-linux-gnu"

%struct.UpgradeTaskReport = type { ptr, [1024 x i8] }
%struct.DbInfo = type { i32, ptr, [1024 x i8], %struct.RelInfoArr, %struct.LogicalSlotInfoArr }
%struct.RelInfoArr = type { ptr, i32 }
%struct.LogicalSlotInfoArr = type { i32, ptr }

@.str.23 = private unnamed_addr constant [2 x i8] c"w\00", align 1
@.str.24 = private unnamed_addr constant [29 x i8] c"could not open file \22%s\22: %m\00", align 1
@.str.75 = private unnamed_addr constant [8 x i8] c"nspname\00", align 1
@.str.83 = private unnamed_addr constant [17 x i8] c"In database: %s\0A\00", align 1
@.str.157 = private unnamed_addr constant [7 x i8] c"conoid\00", align 1
@.str.158 = private unnamed_addr constant [8 x i8] c"conname\00", align 1
@.str.159 = private unnamed_addr constant [18 x i8] c"  (oid=%s) %s.%s\0A\00", align 1

; Function Attrs: nounwind uwtable
define internal void @process_user_defined_encoding_conversions(ptr noundef %0, ptr noundef %1, ptr noundef %2) #0 {
  %4 = alloca ptr, align 8
  %5 = alloca ptr, align 8
  %6 = alloca ptr, align 8
  %7 = alloca ptr, align 8
  %8 = alloca i32, align 4
  %9 = alloca i32, align 4
  %10 = alloca i32, align 4
  %11 = alloca i32, align 4
  %12 = alloca i32, align 4
  %13 = alloca i32, align 4
  store ptr %0, ptr %4, align 8
  store ptr %1, ptr %5, align 8
  store ptr %2, ptr %6, align 8
  call void @llvm.lifetime.start.p0(i64 8, ptr %7) #9
  %14 = load ptr, ptr %6, align 8
  store ptr %14, ptr %7, align 8
  call void @llvm.lifetime.start.p0(i64 4, ptr %8) #9
  %15 = load ptr, ptr %5, align 8
  %16 = call i32 @PQntuples(ptr noundef %15)
  store i32 %16, ptr %8, align 4
  call void @llvm.lifetime.start.p0(i64 4, ptr %9) #9
  %17 = load ptr, ptr %5, align 8
  %18 = call i32 @PQfnumber(ptr noundef %17, ptr noundef @.str.157)
  store i32 %18, ptr %9, align 4
  call void @llvm.lifetime.start.p0(i64 4, ptr %10) #9
  %19 = load ptr, ptr %5, align 8
  %20 = call i32 @PQfnumber(ptr noundef %19, ptr noundef @.str.158)
  store i32 %20, ptr %10, align 4
  call void @llvm.lifetime.start.p0(i64 4, ptr %11) #9
  %21 = load ptr, ptr %5, align 8
  %22 = call i32 @PQfnumber(ptr noundef %21, ptr noundef @.str.75)
  store i32 %22, ptr %11, align 4
  br label %23

23:                                               ; preds = %3
  br label %24

24:                                               ; preds = %23
  br label %25

25:                                               ; preds = %24
  %26 = load i32, ptr %8, align 4
  %27 = icmp eq i32 %26, 0
  br i1 %27, label %28, label %29

28:                                               ; preds = %25
  store i32 1, ptr %12, align 4
  br label %80

29:                                               ; preds = %25
  %30 = load ptr, ptr %7, align 8
  %31 = getelementptr inbounds nuw %struct.UpgradeTaskReport, ptr %30, i32 0, i32 0
  %32 = load ptr, ptr %31, align 8
  %33 = icmp eq ptr %32, null
  br i1 %33, label %34, label %46

34:                                               ; preds = %29
  %35 = load ptr, ptr %7, align 8
  %36 = getelementptr inbounds nuw %struct.UpgradeTaskReport, ptr %35, i32 0, i32 1
  %37 = getelementptr inbounds [1024 x i8], ptr %36, i64 0, i64 0
  %38 = call noalias ptr @fopen(ptr noundef %37, ptr noundef @.str.23)
  %39 = load ptr, ptr %7, align 8
  %40 = getelementptr inbounds nuw %struct.UpgradeTaskReport, ptr %39, i32 0, i32 0
  store ptr %38, ptr %40, align 8
  %41 = icmp eq ptr %38, null
  br i1 %41, label %42, label %46

42:                                               ; preds = %34
  %43 = load ptr, ptr %7, align 8
  %44 = getelementptr inbounds nuw %struct.UpgradeTaskReport, ptr %43, i32 0, i32 1
  %45 = getelementptr inbounds [1024 x i8], ptr %44, i64 0, i64 0
  call void (ptr, ...) @pg_fatal(ptr noundef @.str.24, ptr noundef %45) #11
  unreachable

46:                                               ; preds = %34, %29
  %47 = load ptr, ptr %7, align 8
  %48 = getelementptr inbounds nuw %struct.UpgradeTaskReport, ptr %47, i32 0, i32 0
  %49 = load ptr, ptr %48, align 8
  %50 = load ptr, ptr %4, align 8
  %51 = getelementptr inbounds nuw %struct.DbInfo, ptr %50, i32 0, i32 1
  %52 = load ptr, ptr %51, align 8
  %53 = call i32 (ptr, ptr, ...) @pg_fprintf(ptr noundef %49, ptr noundef @.str.83, ptr noundef %52)
  call void @llvm.lifetime.start.p0(i64 4, ptr %13) #9
  store i32 0, ptr %13, align 4
  br label %54

54:                                               ; preds = %76, %46
  %55 = load i32, ptr %13, align 4
  %56 = load i32, ptr %8, align 4
  %57 = icmp slt i32 %55, %56
  br i1 %57, label %59, label %58

58:                                               ; preds = %54
  store i32 4, ptr %12, align 4
  call void @llvm.lifetime.end.p0(i64 4, ptr %13) #9
  br label %79

59:                                               ; preds = %54
  %60 = load ptr, ptr %7, align 8
  %61 = getelementptr inbounds nuw %struct.UpgradeTaskReport, ptr %60, i32 0, i32 0
  %62 = load ptr, ptr %61, align 8
  %63 = load ptr, ptr %5, align 8
  %64 = load i32, ptr %13, align 4
  %65 = load i32, ptr %9, align 4
  %66 = call ptr @PQgetvalue(ptr noundef %63, i32 noundef %64, i32 noundef %65)
  %67 = load ptr, ptr %5, align 8
  %68 = load i32, ptr %13, align 4
  %69 = load i32, ptr %11, align 4
  %70 = call ptr @PQgetvalue(ptr noundef %67, i32 noundef %68, i32 noundef %69)
  %71 = load ptr, ptr %5, align 8
  %72 = load i32, ptr %13, align 4
  %73 = load i32, ptr %10, align 4
  %74 = call ptr @PQgetvalue(ptr noundef %71, i32 noundef %72, i32 noundef %73)
  %75 = call i32 (ptr, ptr, ...) @pg_fprintf(ptr noundef %62, ptr noundef @.str.159, ptr noundef %66, ptr noundef %70, ptr noundef %74)
  br label %76

76:                                               ; preds = %59
  %77 = load i32, ptr %13, align 4
  %78 = add i32 %77, 1
  store i32 %78, ptr %13, align 4
  br label %54, !llvm.loop !26

79:                                               ; preds = %58
  store i32 0, ptr %12, align 4
  br label %80

80:                                               ; preds = %79, %28
  call void @llvm.lifetime.end.p0(i64 4, ptr %11) #9
  call void @llvm.lifetime.end.p0(i64 4, ptr %10) #9
  call void @llvm.lifetime.end.p0(i64 4, ptr %9) #9
  call void @llvm.lifetime.end.p0(i64 4, ptr %8) #9
  call void @llvm.lifetime.end.p0(i64 8, ptr %7) #9
  %81 = load i32, ptr %12, align 4
  switch i32 %81, label %83 [
    i32 0, label %82
    i32 1, label %82
  ]

82:                                               ; preds = %80, %80
  ret void

83:                                               ; preds = %80
  unreachable
}