; Function Attrs: nounwind uwtable
define internal void @process_user_defined_encoding_conversions(ptr noundef readonly captures(none) %0, ptr noundef %1, ptr noundef %2) #0 {
  %4 = tail call i32 @PQntuples(ptr noundef %1) #10
  %5 = tail call i32 @PQfnumber(ptr noundef %1, ptr noundef nonnull @.str.157) #10
  %6 = tail call i32 @PQfnumber(ptr noundef %1, ptr noundef nonnull @.str.158) #10
  %7 = tail call i32 @PQfnumber(ptr noundef %1, ptr noundef nonnull @.str.75) #10
  %8 = icmp eq i32 %4, 0
  br i1 %8, label %.loopexit, label %9

9:                                                ; preds = %3
  %10 = load ptr, ptr %2, align 8
  %11 = icmp eq ptr %10, null
  br i1 %11, label %12, label %17

12:                                               ; preds = %9
  %13 = getelementptr inbounds nuw i8, ptr %2, i64 8
  %14 = tail call noalias ptr @fopen(ptr noundef nonnull %13, ptr noundef nonnull @.str.23)
  store ptr %14, ptr %2, align 8
  %15 = icmp eq ptr %14, null
  br i1 %15, label %16, label %17

16:                                               ; preds = %12
  tail call void (ptr, ...) @pg_fatal(ptr noundef nonnull @.str.24, ptr noundef nonnull %13) #12
  unreachable

17:                                               ; preds = %12, %9
  %18 = phi ptr [ %14, %12 ], [ %10, %9 ]
  %19 = getelementptr inbounds nuw i8, ptr %0, i64 8
  %20 = load ptr, ptr %19, align 8
  %21 = tail call i32 (ptr, ptr, ...) @pg_fprintf(ptr noundef nonnull %18, ptr noundef nonnull @.str.83, ptr noundef %20) #10
  %22 = icmp sgt i32 %4, 0
  br i1 %22, label %.lr.ph, label %.loopexit

.lr.ph:                                           ; preds = %17, %.lr.ph
  %.025 = phi i32 [ %28, %.lr.ph ], [ 0, %17 ]
  %23 = load ptr, ptr %2, align 8
  %24 = tail call ptr @PQgetvalue(ptr noundef %1, i32 noundef %.025, i32 noundef %5) #10
  %25 = tail call ptr @PQgetvalue(ptr noundef %1, i32 noundef %.025, i32 noundef %7) #10
  %26 = tail call ptr @PQgetvalue(ptr noundef %1, i32 noundef %.025, i32 noundef %6) #10
  %27 = tail call i32 (ptr, ptr, ...) @pg_fprintf(ptr noundef %23, ptr noundef nonnull @.str.159, ptr noundef %24, ptr noundef %25, ptr noundef %26) #10
  %28 = add nuw nsw i32 %.025, 1
  %exitcond.not = icmp eq i32 %28, %4
  br i1 %exitcond.not, label %.loopexit, label %.lr.ph, !llvm.loop !26

.loopexit:                                        ; preds = %.lr.ph, %17, %3
  ret void
}